target datalayout = "e-m:e-p270:32:32-p271:32:32-p272:64:64-i64:64-i128:128-f80:128-n8:16:32:64-S128"
target triple = "x86_64-pc-linux-gnu"

%"struct.c4::srcloc" = type { ptr, i32 }
%struct.__va_list_tag = type { i32, i32, ptr, ptr }

@_ZN2c4L13s_error_flagsE = internal global i32 15, align 4
@_ZN2c4L16s_error_callbackE = internal global ptr null, align 8
@stderr = external global ptr, align 8
@.str.10 = private unnamed_addr constant [2 x i8] c"\0A\00", align 1
@.str.11 = private unnamed_addr constant [18 x i8] c"%s:%d: ERROR: %s\0A\00", align 1

; Function Attrs: mustprogress uwtable
define void @_ZN2c412handle_errorENS_6srclocEPKcz(ptr %0, i32 %1, ptr noundef %2, ...) #1 {
  %4 = alloca %"struct.c4::srcloc", align 8
  %5 = alloca ptr, align 8
  %6 = alloca [1024 x i8], align 16
  %7 = alloca i64, align 8
  %8 = alloca [1 x %struct.__va_list_tag], align 16
  %9 = alloca i32, align 4
  %10 = getelementptr inbounds nuw { ptr, i32 }, ptr %4, i32 0, i32 0
  store ptr %0, ptr %10, align 8
  %11 = getelementptr inbounds nuw { ptr, i32 }, ptr %4, i32 0, i32 1
  store i32 %1, ptr %11, align 8
  store ptr %2, ptr %5, align 8, !tbaa !20
  call void @llvm.lifetime.start.p0(i64 1024, ptr %6) #25
  call void @llvm.lifetime.start.p0(i64 8, ptr %7) #25
  store i64 0, ptr %7, align 8, !tbaa !15
  %12 = load i32, ptr @_ZN2c4L13s_error_flagsE, align 4, !tbaa !32
  %13 = and i32 %12, 6
  %14 = icmp ne i32 %13, 0
  br i1 %14, label %15, label %33

15:                                               ; preds = %3
  call void @llvm.lifetime.start.p0(i64 24, ptr %8) #25
  %16 = getelementptr inbounds [1 x %struct.__va_list_tag], ptr %8, i64 0, i64 0
  call void @llvm.va_start.p0(ptr %16)
  call void @llvm.lifetime.start.p0(i64 4, ptr %9) #25
  %17 = getelementptr inbounds [1024 x i8], ptr %6, i64 0, i64 0
  %18 = load ptr, ptr %5, align 8, !tbaa !20
  %19 = getelementptr inbounds [1 x %struct.__va_list_tag], ptr %8, i64 0, i64 0
  %20 = call i32 @vsnprintf(ptr noundef %17, i64 noundef 1024, ptr noundef %18, ptr noundef %19) #25
  store i32 %20, ptr %9, align 4, !tbaa !32
  %21 = getelementptr inbounds [1 x %struct.__va_list_tag], ptr %8, i64 0, i64 0
  call void @llvm.va_end.p0(ptr %21)
  %22 = load i32, ptr %9, align 4, !tbaa !32
  %23 = icmp sge i32 %22, 0
  br i1 %23, label %24, label %30

24:                                               ; preds = %15
  %25 = load i32, ptr %9, align 4, !tbaa !32
  %26 = icmp slt i32 %25, 1024
  br i1 %26, label %27, label %30

27:                                               ; preds = %24
  %28 = load i32, ptr %9, align 4, !tbaa !32
  %29 = sext i32 %28 to i64
  br label %31

30:                                               ; preds = %24, %15
  br label %31

31:                                               ; preds = %30, %27
  %32 = phi i64 [ %29, %27 ], [ 1023, %30 ]
  store i64 %32, ptr %7, align 8, !tbaa !15
  call void @llvm.lifetime.end.p0(i64 4, ptr %9) #25
  call void @llvm.lifetime.end.p0(i64 24, ptr %8) #25
  br label %33

33:                                               ; preds = %31, %3
  %34 = load i32, ptr @_ZN2c4L13s_error_flagsE, align 4, !tbaa !32
  %35 = and i32 %34, 2
  %36 = icmp ne i32 %35, 0
  br i1 %36, label %37, label %51

37:                                               ; preds = %33
  %38 = load ptr, ptr @stderr, align 8, !tbaa !33
  %39 = call i32 (ptr, ptr, ...) @fprintf(ptr noundef %38, ptr noundef @.str.10) #25
  %40 = load ptr, ptr @stderr, align 8, !tbaa !33
  %41 = call i32 @fflush(ptr noundef %40)
  %42 = load ptr, ptr @stderr, align 8, !tbaa !33
  %43 = getelementptr inbounds nuw %"struct.c4::srcloc", ptr %4, i32 0, i32 0
  %44 = load ptr, ptr %43, align 8, !tbaa !21
  %45 = getelementptr inbounds nuw %"struct.c4::srcloc", ptr %4, i32 0, i32 1
  %46 = load i32, ptr %45, align 8, !tbaa !24
  %47 = getelementptr inbounds [1024 x i8], ptr %6, i64 0, i64 0
  %48 = call i32 (ptr, ptr, ...) @fprintf(ptr noundef %42, ptr noundef @.str.11, ptr noundef %44, i32 noundef %46, ptr noundef %47) #25
  %49 = load ptr, ptr @stderr, align 8, !tbaa !33
  %50 = call i32 @fflush(ptr noundef %49)
  br label %51

51:                                               ; preds = %37, %33
  %52 = load i32, ptr @_ZN2c4L13s_error_flagsE, align 4, !tbaa !32
  %53 = and i32 %52, 4
  %54 = icmp ne i32 %53, 0
  br i1 %54, label %55, label %63

55:                                               ; preds = %51
  %56 = load ptr, ptr @_ZN2c4L16s_error_callbackE, align 8, !tbaa !13
  %57 = icmp ne ptr %56, null
  br i1 %57, label %58, label %62

58:                                               ; preds = %55
  %59 = load ptr, ptr @_ZN2c4L16s_error_callbackE, align 8, !tbaa !13
  %60 = getelementptr inbounds [1024 x i8], ptr %6, i64 0, i64 0
  %61 = load i64, ptr %7, align 8, !tbaa !15
  call void %59(ptr noundef %60, i64 noundef %61)
  br label %62

62:                                               ; preds = %58, %55
  br label %63

63:                                               ; preds = %62, %51
  %64 = load i32, ptr @_ZN2c4L13s_error_flagsE, align 4, !tbaa !32
  %65 = and i32 %64, 8
  %66 = icmp ne i32 %65, 0
  br i1 %66, label %67, label %68

67:                                               ; preds = %63
  call void @abort() #27
  unreachable

68:                                               ; preds = %63
  %69 = load i32, ptr @_ZN2c4L13s_error_flagsE, align 4, !tbaa !32
  %70 = and i32 %69, 16
  %71 = icmp ne i32 %70, 0
  br i1 %71, label %72, label %73

72:                                               ; preds = %68
  call void @abort() #27
  unreachable

73:                                               ; preds = %68
  call void @llvm.lifetime.end.p0(i64 8, ptr %7) #25
  call void @llvm.lifetime.end.p0(i64 1024, ptr %6) #25
  ret void
}