; Function Attrs: mustprogress uwtable
define void @_ZN2c412handle_errorENS_6srclocEPKcz(ptr %0, i32 %1, ptr noundef readonly captures(none) %2, ...) local_unnamed_addr #1 {
  %4 = alloca [1024 x i8], align 16
  %5 = alloca [1 x %struct.__va_list_tag], align 16
  call void @llvm.lifetime.start.p0(i64 1024, ptr nonnull %4) #39
  %6 = load i32, ptr @_ZN2c4L13s_error_flagsE, align 4, !tbaa !17
  %7 = and i32 %6, 6
  %.not = icmp eq i32 %7, 0
  br i1 %.not, label %11, label %8

8:                                                ; preds = %3
  call void @llvm.lifetime.start.p0(i64 24, ptr nonnull %5) #39
  call void @llvm.va_start.p0(ptr nonnull %5)
  %9 = call i32 @vsnprintf(ptr noundef nonnull %4, i64 noundef 1024, ptr noundef %2, ptr noundef nonnull %5) #39
  call void @llvm.va_end.p0(ptr nonnull %5)
  %narrow = call i32 @llvm.umin.i32(i32 %9, i32 1023)
  %10 = zext nneg i32 %narrow to i64
  call void @llvm.lifetime.end.p0(i64 24, ptr nonnull %5) #39
  %.pre = load i32, ptr @_ZN2c4L13s_error_flagsE, align 4, !tbaa !17
  br label %11

11:                                               ; preds = %8, %3
  %12 = phi i32 [ %.pre, %8 ], [ %6, %3 ]
  %.0 = phi i64 [ %10, %8 ], [ 0, %3 ]
  %13 = and i32 %12, 2
  %.not8 = icmp eq i32 %13, 0
  br i1 %.not8, label %22, label %14

14:                                               ; preds = %11
  %15 = load ptr, ptr @stderr, align 8, !tbaa !19
  %fputc = call i32 @fputc(i32 10, ptr %15)
  %16 = load ptr, ptr @stderr, align 8, !tbaa !19
  %17 = call i32 @fflush(ptr noundef %16)
  %18 = load ptr, ptr @stderr, align 8, !tbaa !19
  %19 = call i32 (ptr, ptr, ...) @fprintf(ptr noundef %18, ptr noundef nonnull @.str.11, ptr noundef %0, i32 noundef %1, ptr noundef nonnull %4) #40
  %20 = load ptr, ptr @stderr, align 8, !tbaa !19
  %21 = call i32 @fflush(ptr noundef %20)
  %.pre11 = load i32, ptr @_ZN2c4L13s_error_flagsE, align 4, !tbaa !17
  br label %22

22:                                               ; preds = %14, %11
  %23 = phi i32 [ %.pre11, %14 ], [ %12, %11 ]
  %24 = and i32 %23, 4
  %25 = icmp ne i32 %24, 0
  %26 = load ptr, ptr @_ZN2c4L16s_error_callbackE, align 8
  %27 = icmp ne ptr %26, null
  %or.cond3 = select i1 %25, i1 %27, i1 false
  br i1 %or.cond3, label %28, label %29

28:                                               ; preds = %22
  call void %26(ptr noundef nonnull %4, i64 noundef %.0)
  %.pre12 = load i32, ptr @_ZN2c4L13s_error_flagsE, align 4, !tbaa !17
  br label %29

29:                                               ; preds = %28, %22
  %30 = phi i32 [ %.pre12, %28 ], [ %23, %22 ]
  %31 = and i32 %30, 8
  %.not9 = icmp eq i32 %31, 0
  br i1 %.not9, label %33, label %32

32:                                               ; preds = %29
  call void @abort() #41
  unreachable

33:                                               ; preds = %29
  %34 = and i32 %30, 16
  %.not10 = icmp eq i32 %34, 0
  br i1 %.not10, label %36, label %35

35:                                               ; preds = %33
  call void @abort() #41
  unreachable

36:                                               ; preds = %33
  call void @llvm.lifetime.end.p0(i64 1024, ptr nonnull %4) #39
  ret void
}